target datalayout = "e-m:e-p270:32:32-p271:32:32-p272:64:64-i64:64-i128:128-f80:128-n8:16:32:64-S128"
target triple = "x86_64-pc-linux-gnu"

%"class.sls::bv_lookahead" = type { %class.bv_util, ptr, ptr, ptr, %"struct.sls::bv_lookahead::config", %"struct.sls::bv_lookahead::stats", %"class.sls::bvect", %"class.sls::bvect", %class.ptr_vector, %class.svector.1, %class.vector.3, %class.obj_mark, double, double, %"class.sls::bvect", ptr, ptr, %class.ptr_vector, %class.vector.4, %class.obj_mark, i32, %class.tracked_uint_set, i32, i32 }
%class.bv_util = type { %class.bv_recognizers, ptr, ptr }
%class.bv_recognizers = type { i32 }
%"struct.sls::bv_lookahead::config" = type <{ i8, [7 x i8], double, i32, i32, i8, i8, i8, i8, i32, i32, i32, i32, i8, [3 x i8], i32, i32, i32, i8, [3 x i8], double, double, i8, [7 x i8], double, i8, i8, i8, [5 x i8] }>
%"struct.sls::bv_lookahead::stats" = type { i32, i32, i32, i32, i32, i32 }
%class.svector.1 = type { %class.vector.2 }
%class.vector.2 = type { ptr }
%class.vector.3 = type { ptr }
%"class.sls::bvect" = type <{ %class.svector, i32, i32, i32, [4 x i8] }>
%class.svector = type { %class.vector }
%class.vector = type { ptr }
%class.ptr_vector = type { %class.vector.0 }
%class.vector.0 = type { ptr }
%class.vector.4 = type { ptr }
%class.obj_mark = type { [8 x i8], %class.bit_vector }
%class.bit_vector = type { i32, i32, ptr }
%class.tracked_uint_set = type { %class.svector.5, %class.svector }
%class.svector.5 = type { %class.vector.6 }
%class.vector.6 = type { ptr }

; Function Attrs: mustprogress uwtable
define hidden void @_ZN3sls12bv_lookahead17start_propagationEv(ptr noundef nonnull align 8 dereferenceable(400) %0) #4 align 2 {
  %2 = alloca ptr, align 8
  store ptr %0, ptr %2, align 8, !tbaa !3
  %3 = load ptr, ptr %2, align 8
  %4 = getelementptr inbounds nuw %"class.sls::bv_lookahead", ptr %3, i32 0, i32 5
  %5 = getelementptr inbounds nuw %"struct.sls::bv_lookahead::stats", ptr %4, i32 0, i32 3
  %6 = load i32, ptr %5, align 4, !tbaa !134
  %7 = add i32 %6, 1
  store i32 %7, ptr %5, align 4, !tbaa !134
  %8 = getelementptr inbounds nuw %"class.sls::bv_lookahead", ptr %3, i32 0, i32 4
  %9 = getelementptr inbounds nuw %"struct.sls::bv_lookahead::config", ptr %8, i32 0, i32 17
  %10 = load i32, ptr %9, align 8, !tbaa !135
  %11 = urem i32 %6, %10
  %12 = icmp eq i32 %11, 0
  br i1 %12, label %13, label %14

13:                                               ; preds = %1
  call void @_ZN3sls12bv_lookahead6searchEv(ptr noundef nonnull align 8 dereferenceable(400) %3)
  br label %14

14:                                               ; preds = %13, %1
  ret void
}