; Function Attrs: mustprogress uwtable
define hidden void @_ZN3sls12bv_lookahead17start_propagationEv(ptr noundef nonnull align 8 dereferenceable(400) %0) local_unnamed_addr #3 align 2 {
  %2 = getelementptr inbounds nuw i8, ptr %0, i64 164
  %3 = load i32, ptr %2, align 4, !tbaa !90
  %4 = add i32 %3, 1
  store i32 %4, ptr %2, align 4, !tbaa !90
  %5 = getelementptr inbounds nuw i8, ptr %0, i64 104
  %6 = load i32, ptr %5, align 8, !tbaa !91
  %7 = urem i32 %3, %6
  %8 = icmp eq i32 %7, 0
  br i1 %8, label %9, label %10

9:                                                ; preds = %1
  tail call void @_ZN3sls12bv_lookahead6searchEv(ptr noundef nonnull align 8 dereferenceable(400) %0)
  br label %10

10:                                               ; preds = %9, %1
  ret void
}